target datalayout = "e-m:e-p270:32:32-p271:32:32-p272:64:64-i64:64-i128:128-f80:128-n8:16:32:64-S128"
target triple = "x86_64-pc-linux-gnu"

%"class.draco::GeometryAttribute" = type { ptr, %"struct.draco::DataBufferDescriptor", i8, i32, i8, i64, i64, i32, i32 }
%"struct.draco::DataBufferDescriptor" = type { i64, i64 }
%"class.draco::DataBuffer" = type { %"class.std::vector", %"struct.draco::DataBufferDescriptor" }
%"class.std::vector" = type { %"struct.std::_Vector_base" }
%"struct.std::_Vector_base" = type { %"struct.std::_Vector_base<unsigned char, std::allocator<unsigned char>>::_Vector_impl" }
%"struct.std::_Vector_base<unsigned char, std::allocator<unsigned char>>::_Vector_impl" = type { %"struct.std::_Vector_base<unsigned char, std::allocator<unsigned char>>::_Vector_impl_data" }
%"struct.std::_Vector_base<unsigned char, std::allocator<unsigned char>>::_Vector_impl_data" = type { ptr, ptr, ptr }

; Function Attrs: mustprogress nounwind uwtable
define linkonce_odr noundef ptr @_ZNKSt6vectorIhSaIhEE11_M_data_ptrIhEEPT_S4_(ptr noundef nonnull align 8 dereferenceable(24) %0, ptr noundef %1) #1 comdat align 2 {
  %3 = alloca ptr, align 8
  %4 = alloca ptr, align 8
  store ptr %0, ptr %3, align 8, !tbaa !47
  store ptr %1, ptr %4, align 8, !tbaa !50
  %5 = load ptr, ptr %4, align 8, !tbaa !50
  ret ptr %5
}

; Function Attrs: mustprogress nounwind uwtable
define linkonce_odr noundef i64 @_ZNKSt6vectorIhSaIhEE4sizeEv(ptr noundef nonnull align 8 dereferenceable(24) %0) #1 comdat align 2 {
  %2 = alloca ptr, align 8
  store ptr %0, ptr %2, align 8, !tbaa !47
  %3 = load ptr, ptr %2, align 8
  %4 = getelementptr inbounds nuw %"struct.std::_Vector_base", ptr %3, i32 0, i32 0
  %5 = getelementptr inbounds nuw %"struct.std::_Vector_base<unsigned char, std::allocator<unsigned char>>::_Vector_impl_data", ptr %4, i32 0, i32 1
  %6 = load ptr, ptr %5, align 8, !tbaa !51
  %7 = getelementptr inbounds nuw %"struct.std::_Vector_base", ptr %3, i32 0, i32 0
  %8 = getelementptr inbounds nuw %"struct.std::_Vector_base<unsigned char, std::allocator<unsigned char>>::_Vector_impl_data", ptr %7, i32 0, i32 0
  %9 = load ptr, ptr %8, align 8, !tbaa !49
  %10 = ptrtoint ptr %6 to i64
  %11 = ptrtoint ptr %9 to i64
  %12 = sub i64 %10, %11
  ret i64 %12
}

; Function Attrs: mustprogress nounwind uwtable
define linkonce_odr noundef ptr @_ZNSt6vectorIhSaIhEE4dataEv(ptr noundef nonnull align 8 dereferenceable(24) %0) #1 comdat align 2 {
  %2 = alloca ptr, align 8
  store ptr %0, ptr %2, align 8, !tbaa !47
  %3 = load ptr, ptr %2, align 8
  %4 = getelementptr inbounds nuw %"struct.std::_Vector_base", ptr %3, i32 0, i32 0
  %5 = getelementptr inbounds nuw %"struct.std::_Vector_base<unsigned char, std::allocator<unsigned char>>::_Vector_impl_data", ptr %4, i32 0, i32 0
  %6 = load ptr, ptr %5, align 8, !tbaa !49
  %7 = call noundef ptr @_ZNKSt6vectorIhSaIhEE11_M_data_ptrIhEEPT_S4_(ptr noundef nonnull align 8 dereferenceable(24) %3, ptr noundef %6) #4
  ret ptr %7
}

; Function Attrs: mustprogress nounwind uwtable
define linkonce_odr noundef i64 @_ZNK5draco10DataBuffer9data_sizeEv(ptr noundef nonnull align 8 dereferenceable(40) %0) #1 comdat align 2 {
  %2 = alloca ptr, align 8
  store ptr %0, ptr %2, align 8, !tbaa !28
  %3 = load ptr, ptr %2, align 8
  %4 = getelementptr inbounds nuw %"class.draco::DataBuffer", ptr %3, i32 0, i32 0
  %5 = call noundef i64 @_ZNKSt6vectorIhSaIhEE4sizeEv(ptr noundef nonnull align 8 dereferenceable(24) %4) #4
  ret i64 %5
}

; Function Attrs: mustprogress nounwind uwtable
define linkonce_odr noundef ptr @_ZN5draco10DataBuffer4dataEv(ptr noundef nonnull align 8 dereferenceable(40) %0) #1 comdat align 2 {
  %2 = alloca ptr, align 8
  store ptr %0, ptr %2, align 8, !tbaa !28
  %3 = load ptr, ptr %2, align 8
  %4 = getelementptr inbounds nuw %"class.draco::DataBuffer", ptr %3, i32 0, i32 0
  %5 = call noundef ptr @_ZNSt6vectorIhSaIhEE4dataEv(ptr noundef nonnull align 8 dereferenceable(24) %4) #4
  ret ptr %5
}

; Function Attrs: mustprogress uwtable
define noundef zeroext i1 @_ZN5draco17GeometryAttribute8CopyFromERKS0_(ptr noundef nonnull align 8 dereferenceable(64) %0, ptr noundef nonnull align 8 dereferenceable(64) %1) #0 align 2 {
  %3 = alloca i1, align 1
  %4 = alloca ptr, align 8
  %5 = alloca ptr, align 8
  store ptr %0, ptr %4, align 8, !tbaa !3
  store ptr %1, ptr %5, align 8, !tbaa !3
  %6 = load ptr, ptr %4, align 8
  %7 = load ptr, ptr %5, align 8, !tbaa !3
  %8 = getelementptr inbounds nuw %"class.draco::GeometryAttribute", ptr %7, i32 0, i32 2
  %9 = load i8, ptr %8, align 8, !tbaa !17
  %10 = getelementptr inbounds nuw %"class.draco::GeometryAttribute", ptr %6, i32 0, i32 2
  store i8 %9, ptr %10, align 8, !tbaa !17
  %11 = load ptr, ptr %5, align 8, !tbaa !3
  %12 = getelementptr inbounds nuw %"class.draco::GeometryAttribute", ptr %11, i32 0, i32 3
  %13 = load i32, ptr %12, align 4, !tbaa !18
  %14 = getelementptr inbounds nuw %"class.draco::GeometryAttribute", ptr %6, i32 0, i32 3
  store i32 %13, ptr %14, align 4, !tbaa !18
  %15 = load ptr, ptr %5, align 8, !tbaa !3
  %16 = getelementptr inbounds nuw %"class.draco::GeometryAttribute", ptr %15, i32 0, i32 4
  %17 = load i8, ptr %16, align 8, !tbaa !37, !range !35, !noundef !36
  %18 = trunc i8 %17 to i1
  %19 = getelementptr inbounds nuw %"class.draco::GeometryAttribute", ptr %6, i32 0, i32 4
  %20 = zext i1 %18 to i8
  store i8 %20, ptr %19, align 8, !tbaa !37
  %21 = load ptr, ptr %5, align 8, !tbaa !3
  %22 = getelementptr inbounds nuw %"class.draco::GeometryAttribute", ptr %21, i32 0, i32 5
  %23 = load i64, ptr %22, align 8, !tbaa !19
  %24 = getelementptr inbounds nuw %"class.draco::GeometryAttribute", ptr %6, i32 0, i32 5
  store i64 %23, ptr %24, align 8, !tbaa !19
  %25 = load ptr, ptr %5, align 8, !tbaa !3
  %26 = getelementptr inbounds nuw %"class.draco::GeometryAttribute", ptr %25, i32 0, i32 6
  %27 = load i64, ptr %26, align 8, !tbaa !20
  %28 = getelementptr inbounds nuw %"class.draco::GeometryAttribute", ptr %6, i32 0, i32 6
  store i64 %27, ptr %28, align 8, !tbaa !20
  %29 = load ptr, ptr %5, align 8, !tbaa !3
  %30 = getelementptr inbounds nuw %"class.draco::GeometryAttribute", ptr %29, i32 0, i32 7
  %31 = load i32, ptr %30, align 8, !tbaa !21
  %32 = getelementptr inbounds nuw %"class.draco::GeometryAttribute", ptr %6, i32 0, i32 7
  store i32 %31, ptr %32, align 8, !tbaa !21
  %33 = load ptr, ptr %5, align 8, !tbaa !3
  %34 = getelementptr inbounds nuw %"class.draco::GeometryAttribute", ptr %33, i32 0, i32 1
  %35 = getelementptr inbounds nuw %"class.draco::GeometryAttribute", ptr %6, i32 0, i32 1
  call void @llvm.memcpy.p0.p0.i64(ptr align 8 %35, ptr align 8 %34, i64 16, i1 false), !tbaa.struct !46
  %36 = load ptr, ptr %5, align 8, !tbaa !3
  %37 = getelementptr inbounds nuw %"class.draco::GeometryAttribute", ptr %36, i32 0, i32 8
  %38 = load i32, ptr %37, align 4, !tbaa !22
  %39 = getelementptr inbounds nuw %"class.draco::GeometryAttribute", ptr %6, i32 0, i32 8
  store i32 %38, ptr %39, align 4, !tbaa !22
  %40 = load ptr, ptr %5, align 8, !tbaa !3
  %41 = getelementptr inbounds nuw %"class.draco::GeometryAttribute", ptr %40, i32 0, i32 0
  %42 = load ptr, ptr %41, align 8, !tbaa !8
  %43 = icmp eq ptr %42, null
  br i1 %43, label %44, label %46

44:                                               ; preds = %2
  %45 = getelementptr inbounds nuw %"class.draco::GeometryAttribute", ptr %6, i32 0, i32 0
  store ptr null, ptr %45, align 8, !tbaa !8
  br label %63

46:                                               ; preds = %2
  %47 = getelementptr inbounds nuw %"class.draco::GeometryAttribute", ptr %6, i32 0, i32 0
  %48 = load ptr, ptr %47, align 8, !tbaa !8
  %49 = icmp eq ptr %48, null
  br i1 %49, label %50, label %51

50:                                               ; preds = %46
  store i1 false, ptr %3, align 1
  br label %64

51:                                               ; preds = %46
  %52 = getelementptr inbounds nuw %"class.draco::GeometryAttribute", ptr %6, i32 0, i32 0
  %53 = load ptr, ptr %52, align 8, !tbaa !8
  %54 = load ptr, ptr %5, align 8, !tbaa !3
  %55 = getelementptr inbounds nuw %"class.draco::GeometryAttribute", ptr %54, i32 0, i32 0
  %56 = load ptr, ptr %55, align 8, !tbaa !8
  %57 = call noundef ptr @_ZN5draco10DataBuffer4dataEv(ptr noundef nonnull align 8 dereferenceable(40) %56)
  %58 = load ptr, ptr %5, align 8, !tbaa !3
  %59 = getelementptr inbounds nuw %"class.draco::GeometryAttribute", ptr %58, i32 0, i32 0
  %60 = load ptr, ptr %59, align 8, !tbaa !8
  %61 = call noundef i64 @_ZNK5draco10DataBuffer9data_sizeEv(ptr noundef nonnull align 8 dereferenceable(40) %60)
  %62 = call noundef zeroext i1 @_ZN5draco10DataBuffer6UpdateEPKvl(ptr noundef nonnull align 8 dereferenceable(40) %53, ptr noundef %57, i64 noundef %61)
  br label %63

63:                                               ; preds = %51, %44
  store i1 true, ptr %3, align 1
  br label %64

64:                                               ; preds = %63, %50
  %65 = load i1, ptr %3, align 1
  ret i1 %65
}