; Function Attrs: mustprogress uwtable
define noundef zeroext i1 @_ZN5draco17GeometryAttribute8CopyFromERKS0_(ptr noundef nonnull align 8 captures(none) dereferenceable(64) initializes((8, 25), (28, 33), (40, 64)) %0, ptr noundef nonnull readonly align 8 captures(none) dereferenceable(64) %1) local_unnamed_addr #2 align 2 {
  %3 = getelementptr inbounds nuw i8, ptr %1, i64 24
  %4 = load i8, ptr %3, align 8, !tbaa !3
  %5 = getelementptr inbounds nuw i8, ptr %0, i64 24
  store i8 %4, ptr %5, align 8, !tbaa !3
  %6 = getelementptr inbounds nuw i8, ptr %1, i64 28
  %7 = load i32, ptr %6, align 4, !tbaa !15
  %8 = getelementptr inbounds nuw i8, ptr %0, i64 28
  store i32 %7, ptr %8, align 4, !tbaa !15
  %9 = getelementptr inbounds nuw i8, ptr %1, i64 32
  %10 = load i8, ptr %9, align 8, !tbaa !29, !range !32, !noundef !33
  %11 = getelementptr inbounds nuw i8, ptr %0, i64 32
  store i8 %10, ptr %11, align 8, !tbaa !29
  %12 = getelementptr inbounds nuw i8, ptr %1, i64 40
  %13 = load i64, ptr %12, align 8, !tbaa !30
  %14 = getelementptr inbounds nuw i8, ptr %0, i64 40
  store i64 %13, ptr %14, align 8, !tbaa !30
  %15 = getelementptr inbounds nuw i8, ptr %1, i64 48
  %16 = load i64, ptr %15, align 8, !tbaa !31
  %17 = getelementptr inbounds nuw i8, ptr %0, i64 48
  store i64 %16, ptr %17, align 8, !tbaa !31
  %18 = getelementptr inbounds nuw i8, ptr %1, i64 56
  %19 = load i32, ptr %18, align 8, !tbaa !16
  %20 = getelementptr inbounds nuw i8, ptr %0, i64 56
  store i32 %19, ptr %20, align 8, !tbaa !16
  %21 = getelementptr inbounds nuw i8, ptr %1, i64 8
  %22 = getelementptr inbounds nuw i8, ptr %0, i64 8
  tail call void @llvm.memcpy.p0.p0.i64(ptr noundef nonnull align 8 dereferenceable(16) %22, ptr noundef nonnull align 8 dereferenceable(16) %21, i64 16, i1 false), !tbaa.struct !34
  %23 = getelementptr inbounds nuw i8, ptr %1, i64 60
  %24 = load i32, ptr %23, align 4, !tbaa !17
  %25 = getelementptr inbounds nuw i8, ptr %0, i64 60
  store i32 %24, ptr %25, align 4, !tbaa !17
  %26 = load ptr, ptr %1, align 8, !tbaa !18
  %27 = icmp eq ptr %26, null
  br i1 %27, label %28, label %29

28:                                               ; preds = %2
  store ptr null, ptr %0, align 8, !tbaa !18
  br label %40

29:                                               ; preds = %2
  %30 = load ptr, ptr %0, align 8, !tbaa !18
  %31 = icmp eq ptr %30, null
  br i1 %31, label %40, label %32

32:                                               ; preds = %29
  %33 = load ptr, ptr %26, align 8, !tbaa !36
  %34 = getelementptr inbounds nuw i8, ptr %26, i64 8
  %35 = load ptr, ptr %34, align 8, !tbaa !37
  %36 = ptrtoint ptr %35 to i64
  %37 = ptrtoint ptr %33 to i64
  %38 = sub i64 %36, %37
  %39 = tail call noundef zeroext i1 @_ZN5draco10DataBuffer6UpdateEPKvl(ptr noundef nonnull align 8 dereferenceable(40) %30, ptr noundef %33, i64 noundef %38)
  br label %40

40:                                               ; preds = %28, %32, %29
  %.0 = phi i1 [ false, %29 ], [ true, %32 ], [ true, %28 ]
  ret i1 %.0
}